target datalayout = "e-m:e-p270:32:32-p271:32:32-p272:64:64-i64:64-i128:128-f80:128-n8:16:32:64-S128"
target triple = "x86_64-pc-linux-gnu"

%"class.google::LogMessageVoidify" = type { i8 }
%"class.google::LogMessage" = type { ptr, ptr }
%"class.folly::AsyncUDPSocket" = type { %"class.folly::EventHandler", i16, ptr, ptr, %"class.folly::SocketAddress", %"struct.folly::NetworkSocket", i32, %"class.folly::SocketAddress", %"class.folly::SocketAddress", i8, i8, i8, i8, i8, i8, i32, i32, i32, %"class.folly::Optional.13", %"class.folly::Optional.13", %"class.folly::Optional.15", %"class.folly::Optional.13", ptr, i8, i8, i64, i64, i32, %"class.std::unordered_map", %"class.folly::Function", %"class.std::map", %"class.std::map", ptr, %"class.std::map.26", [8 x i8], %"class.folly::Function.31", %"class.folly::netops::DispatcherContainer" }
%"class.folly::EventHandler" = type { ptr, %"class.folly::EventBaseEvent", ptr }
%"class.folly::EventBaseEvent" = type { %struct.event, ptr, ptr, ptr, %"struct.folly::EventCallback" }
%struct.event = type { %struct.event_callback, %union.anon.2, i32, ptr, %union.anon.4, i16, i16, %struct.timeval }
%struct.event_callback = type { %struct.anon, i16, i8, i8, %union.anon.1, ptr }
%struct.anon = type { ptr, ptr }
%union.anon.1 = type { ptr }
%union.anon.2 = type { %struct.anon.3 }
%struct.anon.3 = type { ptr, ptr }
%union.anon.4 = type { %struct.anon.5 }
%struct.anon.5 = type { %struct.anon.6, %struct.timeval }
%struct.anon.6 = type { ptr, ptr }
%struct.timeval = type { i64, i64 }
%"struct.folly::EventCallback" = type { i32, %union.anon.9 }
%union.anon.9 = type { ptr }
%"struct.folly::NetworkSocket" = type { i32 }
%"class.folly::SocketAddress" = type <{ %"union.folly::SocketAddress::AddrStorage", i16, i8, [5 x i8] }>
%"union.folly::SocketAddress::AddrStorage" = type { %"struct.folly::SocketAddress::ExternalUnixAddr", [8 x i8] }
%"struct.folly::SocketAddress::ExternalUnixAddr" = type { ptr, i32 }
%"class.folly::Optional.15" = type { %"struct.folly::Optional<folly::AsyncUDPSocket::TXTime>::StorageTriviallyDestructible" }
%"struct.folly::Optional<folly::AsyncUDPSocket::TXTime>::StorageTriviallyDestructible" = type { %union.anon.16, i8, [3 x i8] }
%union.anon.16 = type { %"struct.folly::AsyncUDPSocket::TXTime" }
%"struct.folly::AsyncUDPSocket::TXTime" = type <{ i32, i8, [3 x i8] }>
%"class.folly::Optional.13" = type { %"struct.folly::Optional<int>::StorageTriviallyDestructible" }
%"struct.folly::Optional<int>::StorageTriviallyDestructible" = type <{ %union.anon.14, i8, [3 x i8] }>
%union.anon.14 = type { i32 }
%"class.std::unordered_map" = type { %"class.std::_Hashtable" }
%"class.std::_Hashtable" = type { ptr, i64, %"struct.std::__detail::_Hash_node_base", i64, %"struct.std::__detail::_Prime_rehash_policy", ptr }
%"struct.std::__detail::_Hash_node_base" = type { ptr }
%"struct.std::__detail::_Prime_rehash_policy" = type { float, i64 }
%"class.folly::Function" = type { %"union.folly::detail::function::Data", ptr, ptr }
%"union.folly::detail::function::Data" = type { %"struct.folly::detail::function::Data::BigTrivialLayout", [24 x i8] }
%"struct.folly::detail::function::Data::BigTrivialLayout" = type { ptr, i64, i64 }
%"class.std::map" = type { %"class.std::_Rb_tree" }
%"class.std::_Rb_tree" = type { %"struct.std::_Rb_tree<folly::SocketOptionKey, std::pair<const folly::SocketOptionKey, int>, std::_Select1st<std::pair<const folly::SocketOptionKey, int>>, std::less<folly::SocketOptionKey>>::_Rb_tree_impl" }
%"struct.std::_Rb_tree<folly::SocketOptionKey, std::pair<const folly::SocketOptionKey, int>, std::_Select1st<std::pair<const folly::SocketOptionKey, int>>, std::less<folly::SocketOptionKey>>::_Rb_tree_impl" = type { [8 x i8], %"struct.std::_Rb_tree_header" }
%"struct.std::_Rb_tree_header" = type { %"struct.std::_Rb_tree_node_base", i64 }
%"struct.std::_Rb_tree_node_base" = type { i32, ptr, ptr, ptr }
%"class.std::map.26" = type { %"class.std::_Rb_tree.27" }
%"class.std::_Rb_tree.27" = type { %"struct.std::_Rb_tree<folly::SocketOptionKey, std::pair<const folly::SocketOptionKey, std::__cxx11::basic_string<char>>, std::_Select1st<std::pair<const folly::SocketOptionKey, std::__cxx11::basic_string<char>>>, std::less<folly::SocketOptionKey>>::_Rb_tree_impl" }
%"struct.std::_Rb_tree<folly::SocketOptionKey, std::pair<const folly::SocketOptionKey, std::__cxx11::basic_string<char>>, std::_Select1st<std::pair<const folly::SocketOptionKey, std::__cxx11::basic_string<char>>>, std::less<folly::SocketOptionKey>>::_Rb_tree_impl" = type { [8 x i8], %"struct.std::_Rb_tree_header" }
%"class.folly::Function.31" = type { %"union.folly::detail::function::Data", ptr, ptr }
%"class.folly::netops::DispatcherContainer" = type { %"class.std::shared_ptr" }
%"class.std::shared_ptr" = type { %"class.std::__shared_ptr" }
%"class.std::__shared_ptr" = type { ptr, %"class.std::__shared_count" }
%"class.std::__shared_count" = type { ptr }
%struct.cmsghdr = type { i64, i32, i32, [0 x i8] }
%"class.std::ios_base" = type { ptr, i64, i64, i32, i32, i32, ptr, %"struct.std::ios_base::_Words", [8 x %"struct.std::ios_base::_Words"], i32, ptr, %"class.std::locale" }
%"struct.std::ios_base::_Words" = type { ptr, i64 }
%"class.std::locale" = type { ptr }
%struct.sock_extended_err = type { i32, i8, i8, i8, i8, i32, %union.anon.221 }
%union.anon.221 = type { i32 }

@.str.36 = private unnamed_addr constant [123 x i8] c"generated/home/dtcxzyw/WorkSpace/Projects/compilers/llvm-opt-benchmark/bench/folly/folly/folly/io/async/AsyncUDPSocket.cpp\00", align 1
@.str.38 = private unnamed_addr constant [22 x i8] c"folly::NetworkSocket(\00", align 1
@.str.39 = private unnamed_addr constant [2 x i8] c")\00", align 1
@_ZZN5folly14AsyncUDPSocket18processZeroCopyMsgERK7cmsghdrE8vlocal__ = internal global ptr @_ZN6google21kLogSiteUninitializedE, align 8
@_ZN6google21kLogSiteUninitializedE = external global i32, align 4
@_ZN3fLI7FLAGS_vE = external global i32, align 4
@.str.57 = private unnamed_addr constant [44 x i8] c"AsyncSocket::processZeroCopyMsg(): setting \00", align 1
@.str.58 = private unnamed_addr constant [60 x i8] c"zeroCopyEnabled_ = false due to SO_EE_CODE_ZEROCOPY_COPIED \00", align 1
@.str.59 = private unnamed_addr constant [4 x i8] c"on \00", align 1

; Function Attrs: inlinehint mustprogress nounwind uwtable
define linkonce_odr noundef i32 @_ZStorSt12_Ios_IostateS_(i32 noundef %0, i32 noundef %1) #4 comdat {
  %3 = alloca i32, align 4
  %4 = alloca i32, align 4
  store i32 %0, ptr %3, align 4, !tbaa !449
  store i32 %1, ptr %4, align 4, !tbaa !449
  %5 = load i32, ptr %3, align 4, !tbaa !449
  %6 = load i32, ptr %4, align 4, !tbaa !449
  %7 = or i32 %5, %6
  ret i32 %7
}

; Function Attrs: mustprogress nounwind uwtable
define available_externally noundef i32 @_ZNKSt9basic_iosIcSt11char_traitsIcEE7rdstateEv(ptr noundef nonnull align 8 dereferenceable(264) %0) #0 align 2 {
  %2 = alloca ptr, align 8
  store ptr %0, ptr %2, align 8, !tbaa !447
  %3 = load ptr, ptr %2, align 8
  %4 = getelementptr inbounds nuw %"class.std::ios_base", ptr %3, i32 0, i32 5
  %5 = load i32, ptr %4, align 8, !tbaa !451
  ret i32 %5
}

; Function Attrs: mustprogress nounwind uwtable
define linkonce_odr noundef i64 @_ZNSt11char_traitsIcE6lengthEPKc(ptr noundef %0) #0 comdat align 2 {
  %2 = alloca ptr, align 8
  store ptr %0, ptr %2, align 8, !tbaa !137
  %3 = load ptr, ptr %2, align 8, !tbaa !137
  %4 = call i64 @strlen(ptr noundef %3) #25
  ret i64 %4
}

; Function Attrs: mustprogress uwtable
define available_externally void @_ZNSt9basic_iosIcSt11char_traitsIcEE8setstateESt12_Ios_Iostate(ptr noundef nonnull align 8 dereferenceable(264) %0, i32 noundef %1) #1 align 2 {
  %3 = alloca ptr, align 8
  %4 = alloca i32, align 4
  store ptr %0, ptr %3, align 8, !tbaa !447
  store i32 %1, ptr %4, align 4, !tbaa !449
  %5 = load ptr, ptr %3, align 8
  %6 = call noundef i32 @_ZNKSt9basic_iosIcSt11char_traitsIcEE7rdstateEv(ptr noundef nonnull align 8 dereferenceable(264) %5)
  %7 = load i32, ptr %4, align 4, !tbaa !449
  %8 = call noundef i32 @_ZStorSt12_Ios_IostateS_(i32 noundef %6, i32 noundef %7)
  call void @_ZNSt9basic_iosIcSt11char_traitsIcEE5clearESt12_Ios_Iostate(ptr noundef nonnull align 8 dereferenceable(264) %5, i32 noundef %8)
  ret void
}

; Function Attrs: mustprogress nounwind uwtable
define linkonce_odr void @_ZN6google17LogMessageVoidifyanERSo(ptr noundef nonnull align 1 dereferenceable(1) %0, ptr noundef nonnull align 8 dereferenceable(8) %1) #0 comdat align 2 {
  %3 = alloca ptr, align 8
  %4 = alloca ptr, align 8
  store ptr %0, ptr %3, align 8, !tbaa !526
  store ptr %1, ptr %4, align 8, !tbaa !440
  ret void
}

; Function Attrs: inlinehint mustprogress uwtable
define linkonce_odr noundef nonnull align 8 dereferenceable(8) ptr @_ZN5follylsIcSt11char_traitsIcEEERSt13basic_ostreamIT_T0_ES7_RKNS_13NetworkSocketE(ptr noundef nonnull align 8 dereferenceable(8) %0, ptr noundef nonnull align 4 dereferenceable(4) %1) #18 comdat {
  %3 = alloca ptr, align 8
  %4 = alloca ptr, align 8
  store ptr %0, ptr %3, align 8, !tbaa !440
  store ptr %1, ptr %4, align 8, !tbaa !203
  %5 = load ptr, ptr %3, align 8, !tbaa !440
  %6 = call noundef nonnull align 8 dereferenceable(8) ptr @_ZStlsISt11char_traitsIcEERSt13basic_ostreamIcT_ES5_PKc(ptr noundef nonnull align 8 dereferenceable(8) %5, ptr noundef @.str.38)
  %7 = load ptr, ptr %4, align 8, !tbaa !203
  %8 = getelementptr inbounds nuw %"struct.folly::NetworkSocket", ptr %7, i32 0, i32 0
  %9 = load i32, ptr %8, align 4, !tbaa !205
  %10 = call noundef nonnull align 8 dereferenceable(8) ptr @_ZNSolsEi(ptr noundef nonnull align 8 dereferenceable(8) %6, i32 noundef %9)
  %11 = call noundef nonnull align 8 dereferenceable(8) ptr @_ZStlsISt11char_traitsIcEERSt13basic_ostreamIcT_ES5_PKc(ptr noundef nonnull align 8 dereferenceable(8) %10, ptr noundef @.str.39)
  %12 = load ptr, ptr %3, align 8, !tbaa !440
  ret ptr %12
}

; Function Attrs: inlinehint mustprogress uwtable
define available_externally noundef nonnull align 8 dereferenceable(8) ptr @_ZStlsISt11char_traitsIcEERSt13basic_ostreamIcT_ES5_PKc(ptr noundef nonnull align 8 dereferenceable(8) %0, ptr noundef %1) #18 {
  %3 = alloca ptr, align 8
  %4 = alloca ptr, align 8
  store ptr %0, ptr %3, align 8, !tbaa !440
  store ptr %1, ptr %4, align 8, !tbaa !137
  %5 = load ptr, ptr %4, align 8, !tbaa !137
  %6 = icmp ne ptr %5, null
  br i1 %6, label %13, label %7

7:                                                ; preds = %2
  %8 = load ptr, ptr %3, align 8, !tbaa !440
  %9 = load ptr, ptr %8, align 8, !tbaa !96
  %10 = getelementptr i8, ptr %9, i64 -24
  %11 = load i64, ptr %10, align 8
  %12 = getelementptr inbounds i8, ptr %8, i64 %11
  call void @_ZNSt9basic_iosIcSt11char_traitsIcEE8setstateESt12_Ios_Iostate(ptr noundef nonnull align 8 dereferenceable(264) %12, i32 noundef 1)
  br label %19

13:                                               ; preds = %2
  %14 = load ptr, ptr %3, align 8, !tbaa !440
  %15 = load ptr, ptr %4, align 8, !tbaa !137
  %16 = load ptr, ptr %4, align 8, !tbaa !137
  %17 = call noundef i64 @_ZNSt11char_traitsIcE6lengthEPKc(ptr noundef %16)
  %18 = call noundef nonnull align 8 dereferenceable(8) ptr @_ZSt16__ostream_insertIcSt11char_traitsIcEERSt13basic_ostreamIT_T0_ES6_PKS3_l(ptr noundef nonnull align 8 dereferenceable(8) %14, ptr noundef %15, i64 noundef %17)
  br label %19

19:                                               ; preds = %13, %7
  %20 = load ptr, ptr %3, align 8, !tbaa !440
  ret ptr %20
}

; Function Attrs: mustprogress nounwind uwtable
define linkonce_odr void @_ZN6google17LogMessageVoidifyC2Ev(ptr noundef nonnull align 1 dereferenceable(1) %0) unnamed_addr #0 comdat align 2 {
  %2 = alloca ptr, align 8
  store ptr %0, ptr %2, align 8, !tbaa !526
  ret void
}

; Function Attrs: mustprogress uwtable
define void @_ZN5folly14AsyncUDPSocket18processZeroCopyMsgERK7cmsghdr(ptr noundef nonnull align 16 dereferenceable(768) %0, ptr noundef nonnull align 8 dereferenceable(16) %1) #1 align 2 personality ptr @__gxx_personality_v0 {
  %3 = alloca ptr, align 8
  %4 = alloca ptr, align 8
  %5 = alloca ptr, align 8
  %6 = alloca i32, align 4
  %7 = alloca i32, align 4
  %8 = alloca i32, align 4
  %9 = alloca i8, align 1
  %10 = alloca %"class.google::LogMessageVoidify", align 1
  %11 = alloca %"class.google::LogMessage", align 8
  %12 = alloca i1, align 1
  %13 = alloca i1, align 1
  %14 = alloca ptr, align 8
  %15 = alloca i32, align 4
  %16 = alloca i32, align 4
  store ptr %0, ptr %3, align 8, !tbaa !7
  store ptr %1, ptr %4, align 8, !tbaa !124
  %17 = load ptr, ptr %3, align 8
  call void @llvm.lifetime.start.p0(i64 8, ptr %5) #25
  %18 = load ptr, ptr %4, align 8, !tbaa !124
  %19 = getelementptr inbounds nuw %struct.cmsghdr, ptr %18, i32 0, i32 3
  %20 = getelementptr inbounds [0 x i8], ptr %19, i64 0, i64 0
  store ptr %20, ptr %5, align 8, !tbaa !734
  call void @llvm.lifetime.start.p0(i64 4, ptr %6) #25
  %21 = load ptr, ptr %5, align 8, !tbaa !734
  %22 = getelementptr inbounds nuw %struct.sock_extended_err, ptr %21, i32 0, i32 6
  %23 = load i32, ptr %22, align 4, !tbaa !190
  store i32 %23, ptr %6, align 4, !tbaa !74
  call void @llvm.lifetime.start.p0(i64 4, ptr %7) #25
  %24 = load ptr, ptr %5, align 8, !tbaa !734
  %25 = getelementptr inbounds nuw %struct.sock_extended_err, ptr %24, i32 0, i32 5
  %26 = load i32, ptr %25, align 4, !tbaa !739
  store i32 %26, ptr %7, align 4, !tbaa !74
  %27 = load ptr, ptr %5, align 8, !tbaa !734
  %28 = getelementptr inbounds nuw %struct.sock_extended_err, ptr %27, i32 0, i32 3
  %29 = load i8, ptr %28, align 2, !tbaa !740
  %30 = zext i8 %29 to i32
  %31 = and i32 %30, 1
  %32 = icmp ne i32 %31, 0
  br i1 %32, label %33, label %86

33:                                               ; preds = %2
  %34 = getelementptr inbounds nuw %"class.folly::AsyncUDPSocket", ptr %17, i32 0, i32 23
  %35 = load i8, ptr %34, align 8, !tbaa !132, !range !114, !noundef !115
  %36 = trunc i8 %35 to i1
  br i1 %36, label %37, label %86

37:                                               ; preds = %33
  call void @llvm.lifetime.start.p0(i64 4, ptr %8) #25
  store i32 2, ptr %8, align 4, !tbaa !74
  %38 = load ptr, ptr @_ZZN5folly14AsyncUDPSocket18processZeroCopyMsgERK7cmsghdrE8vlocal__, align 8, !tbaa !306
  %39 = load i32, ptr %38, align 4, !tbaa !74
  %40 = load i32, ptr %8, align 4, !tbaa !74
  %41 = icmp sge i32 %39, %40
  call void @llvm.lifetime.start.p0(i64 1, ptr %10) #25
  store i1 false, ptr %12, align 1
  store i1 false, ptr %13, align 1
  br i1 %41, label %42, label %50

42:                                               ; preds = %37
  %43 = load ptr, ptr @_ZZN5folly14AsyncUDPSocket18processZeroCopyMsgERK7cmsghdrE8vlocal__, align 8, !tbaa !306
  %44 = icmp ne ptr %43, @_ZN6google21kLogSiteUninitializedE
  br i1 %44, label %48, label %45

45:                                               ; preds = %42
  %46 = load i32, ptr %8, align 4, !tbaa !74
  %47 = call noundef zeroext i1 @_ZN6google11InitVLOG3__EPPiS0_PKci(ptr noundef @_ZZN5folly14AsyncUDPSocket18processZeroCopyMsgERK7cmsghdrE8vlocal__, ptr noundef @_ZN3fLI7FLAGS_vE, ptr noundef @.str.36, i32 noundef %46)
  br label %48

48:                                               ; preds = %45, %42
  %49 = phi i1 [ true, %42 ], [ %47, %45 ]
  br label %50

50:                                               ; preds = %48, %37
  %51 = phi i1 [ false, %37 ], [ %49, %48 ]
  %52 = zext i1 %51 to i8
  store i8 %52, ptr %9, align 1, !tbaa !110
  call void @llvm.lifetime.end.p0(i64 4, ptr %8) #25
  %53 = load i8, ptr %9, align 1, !tbaa !110, !range !114, !noundef !115
  %54 = trunc i8 %53 to i1
  br i1 %54, label %56, label %55

55:                                               ; preds = %50
  br label %68

56:                                               ; preds = %50
  call void @_ZN6google17LogMessageVoidifyC2Ev(ptr noundef nonnull align 1 dereferenceable(1) %10)
  call void @llvm.lifetime.start.p0(i64 16, ptr %11) #25
  store i1 true, ptr %12, align 1
  call void @_ZN6google10LogMessageC1EPKci(ptr noundef nonnull align 8 dereferenceable(16) %11, ptr noundef @.str.36, i32 noundef 1207)
  store i1 true, ptr %13, align 1
  %57 = invoke noundef nonnull align 8 dereferenceable(8) ptr @_ZN6google10LogMessage6streamEv(ptr noundef nonnull align 8 dereferenceable(16) %11)
          to label %58 unwind label %76

58:                                               ; preds = %56
  %59 = invoke noundef nonnull align 8 dereferenceable(8) ptr @_ZStlsISt11char_traitsIcEERSt13basic_ostreamIcT_ES5_PKc(ptr noundef nonnull align 8 dereferenceable(8) %57, ptr noundef @.str.57)
          to label %60 unwind label %76

60:                                               ; preds = %58
  %61 = invoke noundef nonnull align 8 dereferenceable(8) ptr @_ZStlsISt11char_traitsIcEERSt13basic_ostreamIcT_ES5_PKc(ptr noundef nonnull align 8 dereferenceable(8) %59, ptr noundef @.str.58)
          to label %62 unwind label %76

62:                                               ; preds = %60
  %63 = invoke noundef nonnull align 8 dereferenceable(8) ptr @_ZStlsISt11char_traitsIcEERSt13basic_ostreamIcT_ES5_PKc(ptr noundef nonnull align 8 dereferenceable(8) %61, ptr noundef @.str.59)
          to label %64 unwind label %76

64:                                               ; preds = %62
  %65 = getelementptr inbounds nuw %"class.folly::AsyncUDPSocket", ptr %17, i32 0, i32 5
  %66 = invoke noundef nonnull align 8 dereferenceable(8) ptr @_ZN5follylsIcSt11char_traitsIcEEERSt13basic_ostreamIT_T0_ES7_RKNS_13NetworkSocketE(ptr noundef nonnull align 8 dereferenceable(8) %63, ptr noundef nonnull align 4 dereferenceable(4) %65)
          to label %67 unwind label %76

67:                                               ; preds = %64
  call void @_ZN6google17LogMessageVoidifyanERSo(ptr noundef nonnull align 1 dereferenceable(1) %10, ptr noundef nonnull align 8 dereferenceable(8) %66)
  br label %68

68:                                               ; preds = %67, %55
  %69 = load i1, ptr %13, align 1
  br i1 %69, label %70, label %71

70:                                               ; preds = %68
  call void @_ZN6google10LogMessageD1Ev(ptr noundef nonnull align 8 dereferenceable(16) %11) #25
  br label %71

71:                                               ; preds = %70, %68
  %72 = load i1, ptr %12, align 1
  br i1 %72, label %73, label %74

73:                                               ; preds = %71
  call void @llvm.lifetime.end.p0(i64 16, ptr %11) #25
  br label %74

74:                                               ; preds = %73, %71
  call void @llvm.lifetime.end.p0(i64 1, ptr %10) #25
  %75 = getelementptr inbounds nuw %"class.folly::AsyncUDPSocket", ptr %17, i32 0, i32 23
  store i8 0, ptr %75, align 8, !tbaa !132
  br label %86

76:                                               ; preds = %64, %62, %60, %58, %56
  %77 = landingpad { ptr, i32 }
          cleanup
  %78 = extractvalue { ptr, i32 } %77, 0
  store ptr %78, ptr %14, align 8
  %79 = extractvalue { ptr, i32 } %77, 1
  store i32 %79, ptr %15, align 4
  %80 = load i1, ptr %13, align 1
  br i1 %80, label %81, label %82

81:                                               ; preds = %76
  call void @_ZN6google10LogMessageD1Ev(ptr noundef nonnull align 8 dereferenceable(16) %11) #25
  br label %82

82:                                               ; preds = %81, %76
  %83 = load i1, ptr %12, align 1
  br i1 %83, label %84, label %85

84:                                               ; preds = %82
  call void @llvm.lifetime.end.p0(i64 16, ptr %11) #25
  br label %85

85:                                               ; preds = %84, %82
  call void @llvm.lifetime.end.p0(i64 1, ptr %10) #25
  call void @llvm.lifetime.end.p0(i64 4, ptr %7) #25
  call void @llvm.lifetime.end.p0(i64 4, ptr %6) #25
  call void @llvm.lifetime.end.p0(i64 8, ptr %5) #25
  br label %99

86:                                               ; preds = %74, %33, %2
  call void @llvm.lifetime.start.p0(i64 4, ptr %16) #25
  %87 = load i32, ptr %7, align 4, !tbaa !74
  store i32 %87, ptr %16, align 4, !tbaa !74
  br label %88

88:                                               ; preds = %95, %86
  %89 = load i32, ptr %16, align 4, !tbaa !74
  %90 = load i32, ptr %6, align 4, !tbaa !74
  %91 = icmp ule i32 %89, %90
  br i1 %91, label %93, label %92

92:                                               ; preds = %88
  call void @llvm.lifetime.end.p0(i64 4, ptr %16) #25
  br label %98

93:                                               ; preds = %88
  %94 = load i32, ptr %16, align 4, !tbaa !74
  call void @_ZN5folly14AsyncUDPSocket18releaseZeroCopyBufEj(ptr noundef nonnull align 16 dereferenceable(768) %17, i32 noundef %94)
  br label %95

95:                                               ; preds = %93
  %96 = load i32, ptr %16, align 4, !tbaa !74
  %97 = add i32 %96, 1
  store i32 %97, ptr %16, align 4, !tbaa !74
  br label %88, !llvm.loop !741

98:                                               ; preds = %92
  call void @llvm.lifetime.end.p0(i64 4, ptr %7) #25
  call void @llvm.lifetime.end.p0(i64 4, ptr %6) #25
  call void @llvm.lifetime.end.p0(i64 8, ptr %5) #25
  ret void

99:                                               ; preds = %85
  %100 = load ptr, ptr %14, align 8
  %101 = load i32, ptr %15, align 4
  %102 = insertvalue { ptr, i32 } poison, ptr %100, 0
  %103 = insertvalue { ptr, i32 } %102, i32 %101, 1
  resume { ptr, i32 } %103
}