; Function Attrs: mustprogress uwtable
define void @_ZN5folly14AsyncUDPSocket18processZeroCopyMsgERK7cmsghdr(ptr noundef nonnull align 16 dereferenceable(768) %0, ptr noundef nonnull readonly align 8 captures(none) dereferenceable(16) %1) local_unnamed_addr #1 align 2 personality ptr @__gxx_personality_v0 {
  %3 = alloca %"class.google::LogMessage", align 8
  %4 = getelementptr inbounds nuw i8, ptr %1, i64 28
  %5 = load i32, ptr %4, align 4, !tbaa !33
  %6 = getelementptr inbounds nuw i8, ptr %1, i64 24
  %7 = load i32, ptr %6, align 8, !tbaa !290
  %8 = getelementptr inbounds nuw i8, ptr %1, i64 22
  %9 = load i8, ptr %8, align 2, !tbaa !291
  %10 = and i8 %9, 1
  %.not = icmp eq i8 %10, 0
  br i1 %.not, label %34, label %11

11:                                               ; preds = %2
  %12 = getelementptr inbounds nuw i8, ptr %0, i64 376
  %13 = load i8, ptr %12, align 8, !tbaa !135, !range !21, !noundef !22
  %14 = trunc nuw i8 %13 to i1
  br i1 %14, label %15, label %34

15:                                               ; preds = %11
  %16 = load ptr, ptr @_ZZN5folly14AsyncUDPSocket18processZeroCopyMsgERK7cmsghdrE8vlocal__, align 8, !tbaa !276
  %17 = load i32, ptr %16, align 4, !tbaa !34
  %18 = icmp sgt i32 %17, 1
  br i1 %18, label %19, label %.critedge22

19:                                               ; preds = %15
  %.not20 = icmp eq ptr %16, @_ZN6google21kLogSiteUninitializedE
  br i1 %.not20, label %20, label %.thread

20:                                               ; preds = %19
  %21 = tail call noundef zeroext i1 @_ZN6google11InitVLOG3__EPPiS0_PKci(ptr noundef nonnull @_ZZN5folly14AsyncUDPSocket18processZeroCopyMsgERK7cmsghdrE8vlocal__, ptr noundef nonnull @_ZN3fLI7FLAGS_vE, ptr noundef nonnull @.str.36, i32 noundef 2)
  br i1 %21, label %.thread, label %.critedge22

.thread:                                          ; preds = %19, %20
  call void @llvm.lifetime.start.p0(i64 16, ptr nonnull %3) #36
  call void @_ZN6google10LogMessageC1EPKci(ptr noundef nonnull align 8 dereferenceable(16) %3, ptr noundef nonnull @.str.36, i32 noundef 1207)
  %22 = invoke noundef nonnull align 8 dereferenceable(8) ptr @_ZN6google10LogMessage6streamEv(ptr noundef nonnull align 8 dereferenceable(16) %3)
          to label %23 unwind label %32

23:                                               ; preds = %.thread
  %24 = invoke noundef nonnull align 8 dereferenceable(8) ptr @_ZSt16__ostream_insertIcSt11char_traitsIcEERSt13basic_ostreamIT_T0_ES6_PKS3_l(ptr noundef nonnull align 8 dereferenceable(8) %22, ptr noundef nonnull @.str.57, i64 noundef 43)
          to label %_ZStlsISt11char_traitsIcEERSt13basic_ostreamIcT_ES5_PKc.exit unwind label %32

_ZStlsISt11char_traitsIcEERSt13basic_ostreamIcT_ES5_PKc.exit: ; preds = %23
  %25 = invoke noundef nonnull align 8 dereferenceable(8) ptr @_ZSt16__ostream_insertIcSt11char_traitsIcEERSt13basic_ostreamIT_T0_ES6_PKS3_l(ptr noundef nonnull align 8 dereferenceable(8) %22, ptr noundef nonnull @.str.58, i64 noundef 59)
          to label %_ZStlsISt11char_traitsIcEERSt13basic_ostreamIcT_ES5_PKc.exit23 unwind label %32

_ZStlsISt11char_traitsIcEERSt13basic_ostreamIcT_ES5_PKc.exit23: ; preds = %_ZStlsISt11char_traitsIcEERSt13basic_ostreamIcT_ES5_PKc.exit
  %26 = invoke noundef nonnull align 8 dereferenceable(8) ptr @_ZSt16__ostream_insertIcSt11char_traitsIcEERSt13basic_ostreamIT_T0_ES6_PKS3_l(ptr noundef nonnull align 8 dereferenceable(8) %22, ptr noundef nonnull @.str.59, i64 noundef 3)
          to label %_ZStlsISt11char_traitsIcEERSt13basic_ostreamIcT_ES5_PKc.exit24 unwind label %32

_ZStlsISt11char_traitsIcEERSt13basic_ostreamIcT_ES5_PKc.exit24: ; preds = %_ZStlsISt11char_traitsIcEERSt13basic_ostreamIcT_ES5_PKc.exit23
  %27 = invoke noundef nonnull align 8 dereferenceable(8) ptr @_ZSt16__ostream_insertIcSt11char_traitsIcEERSt13basic_ostreamIT_T0_ES6_PKS3_l(ptr noundef nonnull align 8 dereferenceable(8) %22, ptr noundef nonnull @.str.38, i64 noundef 21)
          to label %.noexc unwind label %32

.noexc:                                           ; preds = %_ZStlsISt11char_traitsIcEERSt13basic_ostreamIcT_ES5_PKc.exit24
  %28 = getelementptr inbounds nuw i8, ptr %0, i64 240
  %29 = load i32, ptr %28, align 16, !tbaa !7
  %30 = invoke noundef nonnull align 8 dereferenceable(8) ptr @_ZNSolsEi(ptr noundef nonnull align 8 dereferenceable(8) %22, i32 noundef %29)
          to label %.noexc25 unwind label %32

.noexc25:                                         ; preds = %.noexc
  %31 = invoke noundef nonnull align 8 dereferenceable(8) ptr @_ZSt16__ostream_insertIcSt11char_traitsIcEERSt13basic_ostreamIT_T0_ES6_PKS3_l(ptr noundef nonnull align 8 dereferenceable(8) %30, ptr noundef nonnull @.str.39, i64 noundef 1)
          to label %.critedge unwind label %32

.critedge:                                        ; preds = %.noexc25
  call void @_ZN6google10LogMessageD1Ev(ptr noundef nonnull align 8 dereferenceable(16) %3) #36
  call void @llvm.lifetime.end.p0(i64 16, ptr nonnull %3) #36
  br label %.critedge22

.critedge22:                                      ; preds = %15, %20, %.critedge
  store i8 0, ptr %12, align 8, !tbaa !135
  br label %34

32:                                               ; preds = %.noexc25, %.noexc, %_ZStlsISt11char_traitsIcEERSt13basic_ostreamIcT_ES5_PKc.exit24, %_ZStlsISt11char_traitsIcEERSt13basic_ostreamIcT_ES5_PKc.exit23, %_ZStlsISt11char_traitsIcEERSt13basic_ostreamIcT_ES5_PKc.exit, %23, %.thread
  %33 = landingpad { ptr, i32 }
          cleanup
  call void @_ZN6google10LogMessageD1Ev(ptr noundef nonnull align 8 dereferenceable(16) %3) #36
  call void @llvm.lifetime.end.p0(i64 16, ptr nonnull %3) #36
  resume { ptr, i32 } %33

34:                                               ; preds = %.critedge22, %11, %2
  %.not2128 = icmp ugt i32 %7, %5
  br i1 %.not2128, label %._crit_edge, label %.lr.ph

._crit_edge:                                      ; preds = %.lr.ph, %34
  ret void

.lr.ph:                                           ; preds = %34, %.lr.ph
  %.029 = phi i32 [ %35, %.lr.ph ], [ %7, %34 ]
  call void @_ZN5folly14AsyncUDPSocket18releaseZeroCopyBufEj(ptr noundef nonnull align 16 dereferenceable(768) %0, i32 noundef %.029)
  %35 = add i32 %.029, 1
  %.not21 = icmp ugt i32 %35, %5
  br i1 %.not21, label %._crit_edge, label %.lr.ph, !llvm.loop !292
}